target datalayout = "e-m:e-p270:32:32-p271:32:32-p272:64:64-i64:64-i128:128-f80:128-n8:16:32:64-S128"
target triple = "x86_64-pc-linux-gnu"

%struct.rb_data_type_struct = type { ptr, %struct.anon.15, ptr, ptr, i64 }
%struct.anon.15 = type { ptr, ptr, ptr, ptr, [1 x ptr] }

@rb_cDir = dso_local global i64 0, align 8
@dir_data_type = internal constant %struct.rb_data_type_struct { ptr @.str.44, %struct.anon.15 { ptr @dir_refs, ptr @dir_free, ptr null, ptr null, [1 x ptr] zeroinitializer }, ptr null, ptr null, i64 16419 }, align 8
@dir_open_dir.rbimpl_id = internal global i64 0, align 8
@.str.55 = private unnamed_addr constant [5 x i8] c"open\00", align 1

; Function Attrs: inlinehint nounwind sspstrong willreturn memory(read) uwtable
define internal i64 @rb_intern_const(ptr noundef nonnull %0) #19 {
  %2 = alloca ptr, align 8
  %3 = alloca i64, align 8
  store ptr %0, ptr %2, align 8, !tbaa !11
  call void @llvm.lifetime.start.p0(i64 8, ptr %3) #26
  %4 = load ptr, ptr %2, align 8, !tbaa !11
  %5 = call i64 @strlen(ptr noundef %4) #27
  store i64 %5, ptr %3, align 8, !tbaa !7
  %6 = load ptr, ptr %2, align 8, !tbaa !11
  %7 = load i64, ptr %3, align 8, !tbaa !7
  %8 = call i64 @rb_intern2(ptr noundef %6, i64 noundef %7)
  call void @llvm.lifetime.end.p0(i64 8, ptr %3) #26
  ret i64 %8
}

; Function Attrs: inlinehint nounwind sspstrong memory(argmem: readwrite, inaccessiblemem: readwrite) uwtable
define internal i64 @rbimpl_intern_const(ptr noundef nonnull %0, ptr noundef nonnull %1) #7 {
  %3 = alloca ptr, align 8
  %4 = alloca ptr, align 8
  store ptr %0, ptr %3, align 8, !tbaa !48
  store ptr %1, ptr %4, align 8, !tbaa !11
  br label %5

5:                                                ; preds = %10, %2
  %6 = load ptr, ptr %3, align 8, !tbaa !48
  %7 = load i64, ptr %6, align 8, !tbaa !7
  %8 = icmp ne i64 %7, 0
  %9 = xor i1 %8, true
  br i1 %9, label %10, label %14

10:                                               ; preds = %5
  %11 = load ptr, ptr %4, align 8, !tbaa !11
  %12 = call i64 @rb_intern_const(ptr noundef %11) #27
  %13 = load ptr, ptr %3, align 8, !tbaa !48
  store i64 %12, ptr %13, align 8, !tbaa !7
  br label %5, !llvm.loop !182

14:                                               ; preds = %5
  %15 = load ptr, ptr %3, align 8, !tbaa !48
  %16 = load i64, ptr %15, align 8, !tbaa !7
  ret i64 %16
}

; Function Attrs: nounwind sspstrong uwtable
define internal i64 @dir_open_dir(i32 noundef %0, ptr noundef %1) #0 {
  %3 = alloca i32, align 4
  %4 = alloca ptr, align 8
  %5 = alloca i64, align 8
  %6 = alloca i64, align 8
  store i32 %0, ptr %3, align 4, !tbaa !21
  store ptr %1, ptr %4, align 8, !tbaa !48
  call void @llvm.lifetime.start.p0(i64 8, ptr %5) #26
  %7 = load i64, ptr @rb_cDir, align 8, !tbaa !7
  %8 = call i64 @rbimpl_intern_const(ptr noundef @dir_open_dir.rbimpl_id, ptr noundef @.str.55) #28
  store i64 %8, ptr %6, align 8, !tbaa !7
  %9 = load i64, ptr %6, align 8, !tbaa !7
  %10 = load i32, ptr %3, align 4, !tbaa !21
  %11 = load ptr, ptr %4, align 8, !tbaa !48
  %12 = call i32 @rb_keyword_given_p()
  %13 = icmp ne i32 %12, 0
  %14 = xor i1 %13, true
  %15 = xor i1 %14, true
  %16 = zext i1 %15 to i32
  %17 = call i64 @rb_funcallv_kw(i64 noundef %7, i64 noundef %9, i32 noundef %10, ptr noundef %11, i32 noundef %16)
  store i64 %17, ptr %5, align 8, !tbaa !7
  %18 = load i64, ptr %5, align 8, !tbaa !7
  %19 = call ptr @rb_check_typeddata(i64 noundef %18, ptr noundef @dir_data_type)
  %20 = load i64, ptr %5, align 8, !tbaa !7
  call void @llvm.lifetime.end.p0(i64 8, ptr %5) #26
  ret i64 %20
}

; Function Attrs: nounwind sspstrong uwtable
define internal i64 @dir_foreach(i32 noundef %0, ptr noundef %1, i64 noundef %2) #0 {
  %4 = alloca i64, align 8
  %5 = alloca i32, align 4
  %6 = alloca ptr, align 8
  %7 = alloca i64, align 8
  %8 = alloca i64, align 8
  %9 = alloca i32, align 4
  store i32 %0, ptr %5, align 4, !tbaa !21
  store ptr %1, ptr %6, align 8, !tbaa !48
  store i64 %2, ptr %7, align 8, !tbaa !7
  call void @llvm.lifetime.start.p0(i64 8, ptr %8) #26
  br label %10

10:                                               ; preds = %3
  %11 = call i32 @rb_block_given_p()
  %12 = icmp ne i32 %11, 0
  br i1 %12, label %20, label %13

13:                                               ; preds = %10
  %14 = load i64, ptr %7, align 8, !tbaa !7
  %15 = call i64 @rb_frame_this_func()
  %16 = call i64 @rb_id2sym(i64 noundef %15)
  %17 = load i32, ptr %5, align 4, !tbaa !21
  %18 = load ptr, ptr %6, align 8, !tbaa !48
  %19 = call i64 @rb_enumeratorize_with_size(i64 noundef %14, i64 noundef %16, i32 noundef %17, ptr noundef %18, ptr noundef null)
  store i64 %19, ptr %4, align 8
  store i32 1, ptr %9, align 4
  br label %29

20:                                               ; preds = %10
  br label %21

21:                                               ; preds = %20
  br label %22

22:                                               ; preds = %21
  %23 = load i32, ptr %5, align 4, !tbaa !21
  %24 = load ptr, ptr %6, align 8, !tbaa !48
  %25 = call i64 @dir_open_dir(i32 noundef %23, ptr noundef %24)
  store i64 %25, ptr %8, align 8, !tbaa !7
  %26 = load i64, ptr %8, align 8, !tbaa !7
  %27 = load i64, ptr %8, align 8, !tbaa !7
  %28 = call i64 @rb_ensure(ptr noundef @dir_each, i64 noundef %26, ptr noundef @dir_close, i64 noundef %27)
  store i64 4, ptr %4, align 8
  store i32 1, ptr %9, align 4
  br label %29

29:                                               ; preds = %22, %13
  call void @llvm.lifetime.end.p0(i64 8, ptr %8) #26
  %30 = load i64, ptr %4, align 8
  ret i64 %30
}